target datalayout = "e-m:e-p270:32:32-p271:32:32-p272:64:64-i64:64-i128:128-f80:128-n8:16:32:64-S128"
target triple = "x86_64-pc-linux-gnu"

%struct.MPVEncContext = type { %struct.MpegEncContext, %struct.PutBitContext, i32, i32, ptr, i32, i32, i32, i32, i32, i32, i32, i32, ptr, ptr, %struct.FDCTDSPContext, %struct.MpegvideoEncDSPContext, %struct.PixblockDSPContext, %struct.MotionEstContext, i32, i32, ptr, ptr, ptr, ptr, ptr, ptr, [2 x [2 x [2 x ptr]]], [2 x ptr], [2 x [2 x ptr]], ptr, ptr, ptr, ptr, [3 x i64], i32, i32, i32, i32, i32, ptr, ptr, ptr, ptr, ptr, ptr, ptr, [12 x i32], ptr, ptr, ptr, ptr, ptr, ptr, ptr, ptr, [2 x i32], ptr, i32, i32, i32, i32, i32, i32, i32, i32, i32, i32, ptr, ptr, i32, i32, %struct.PutBitContext, %struct.PutBitContext, i32, i32, i32, i32, ptr, ptr, ptr, [2 x ptr], [2 x ptr], [2 x ptr], [2 x ptr], ptr, i32 }
%struct.MpegEncContext = type { ptr, i32, i32, i32, [12 x i32], i32, %struct.ScanTable, %struct.ScanTable, [64 x i8], [64 x i8], ptr, ptr, i32, i32, i32, i32, i32, i32, i32, i32, i32, i32, i32, i32, i32, i32, i32, i32, i32, i32, i32, i32, i64, i64, ptr, %struct.BufferPoolContext, i32, i32, %union.anon.0, i32, %struct.MPVWorkPicture, %struct.MPVWorkPicture, %struct.MPVWorkPicture, i32, [3 x i32], ptr, [3 x ptr], ptr, ptr, ptr, ptr, ptr, ptr, [3 x ptr], i32, ptr, ptr, ptr, ptr, %struct.ScratchpadContext, i32, i32, i32, i32, i32, i32, %struct.BlockDSPContext, %struct.H264ChromaContext, %struct.HpelDSPContext, %struct.IDCTDSPContext, %struct.QpelDSPContext, %struct.VideoDSPContext, %struct.H263DSPContext, ptr, [2 x [2 x ptr]], i32, i32, [2 x [4 x [2 x i32]]], [2 x [2 x i32]], [2 x [2 x [2 x i32]]], [2 x [64 x i16]], i32, i32, i32, i32, i32, [6 x i32], [6 x i32], [3 x ptr], ptr, [64 x i16], [64 x i16], [64 x i16], [64 x i16], i32, i32, %struct.GetBitContext, i32, i32, i32, i32, i32, i32, i32, i32, i32, i32, i32, i32, i32, i32, i32, i64, i64, i16, i16, i16, i16, i32, i32, i32, i32, i32, i32, i32, i32, i32, [3 x i32], i32, i32, i32, i32, i32, i32, %struct.GetBitContext, i32, [2 x [2 x i32]], i32, i32, i32, i32, i32, i32, i32, i32, i32, i32, i32, i32, i32, i32, [2 x i32], i32, i32, ptr, ptr, ptr, ptr, ptr, i32, i32, %struct.ERContext }
%struct.ScanTable = type { ptr, [64 x i8], [64 x i8] }
%struct.BufferPoolContext = type { ptr, ptr, ptr, ptr, ptr, i32, i32, i32 }
%union.anon.0 = type { [32 x ptr] }
%struct.MPVWorkPicture = type { [3 x ptr], [3 x i64], ptr, ptr, [2 x ptr], ptr, ptr, [2 x ptr], i32 }
%struct.ScratchpadContext = type { ptr, ptr, %union.anon.1, i32 }
%union.anon.1 = type { ptr }
%struct.BlockDSPContext = type { ptr, ptr, [2 x ptr] }
%struct.H264ChromaContext = type { [4 x ptr], [4 x ptr] }
%struct.HpelDSPContext = type { [4 x [4 x ptr]], [4 x [4 x ptr]], [4 x [4 x ptr]], [4 x ptr] }
%struct.IDCTDSPContext = type { ptr, ptr, ptr, ptr, ptr, ptr, [64 x i8], i32, i32 }
%struct.QpelDSPContext = type { [2 x [16 x ptr]], [2 x [16 x ptr]], [2 x [16 x ptr]] }
%struct.VideoDSPContext = type { ptr, ptr }
%struct.H263DSPContext = type { ptr, ptr }
%struct.GetBitContext = type { ptr, ptr, i32, i32, i32 }
%struct.ERContext = type { ptr, ptr, i32, ptr, i32, i32, i32, i64, i64, i32, i32, ptr, ptr, [3 x ptr], ptr, ptr, [2 x [4 x [2 x i32]]], %struct.ERPicture, %struct.ERPicture, %struct.ERPicture, [2 x ptr], [2 x ptr], i16, i16, i32, i32, ptr, ptr }
%struct.ERPicture = type { ptr, ptr, ptr, [2 x ptr], [2 x ptr], ptr, i32 }
%struct.FDCTDSPContext = type { ptr, ptr }
%struct.MpegvideoEncDSPContext = type { ptr, ptr, ptr, ptr, [4 x ptr], ptr }
%struct.PixblockDSPContext = type { ptr, ptr, ptr, ptr }
%struct.MotionEstContext = type { ptr, i32, i32, [4 x [2 x i32]], [4 x [2 x i32]], ptr, ptr, i32, i32, i32, i32, i32, i32, i32, i32, i32, i32, i32, i32, i32, i32, i32, i32, [4 x [4 x ptr]], [4 x [4 x ptr]], i32, i32, i64, i64, i32, [6 x ptr], [6 x ptr], [6 x ptr], [6 x ptr], [2 x [4 x ptr]], ptr, ptr, ptr, ptr, ptr, ptr, ptr, ptr, [64 x i32], [64 x i32] }
%struct.PutBitContext = type { i32, i32, ptr, ptr, ptr }
%struct.AVCodecContext = type { ptr, i32, i32, ptr, i32, i32, ptr, ptr, ptr, i64, i32, i32, ptr, i32, %struct.AVRational, %struct.AVRational, %struct.AVRational, i32, i32, i32, i32, i32, %struct.AVRational, i32, i32, i32, i32, i32, i32, i32, i32, i32, i32, i32, ptr, ptr, i32, float, float, float, float, float, float, float, float, float, i32, i32, i32, i32, i32, i32, i32, i32, i32, i32, i32, i32, ptr, ptr, ptr, i32, i32, i32, i32, i32, i32, i32, i32, i32, i32, %struct.AVChannelLayout, i32, i32, i32, i32, i32, i32, i32, i32, ptr, i32, i32, i32, float, float, i32, i32, i32, i32, i32, ptr, i64, i64, float, float, i32, i32, ptr, ptr, i32, i32, i32, i32, i32, ptr, ptr, ptr, ptr, i32, i32, [8 x i64], i32, i32, i32, i32, i32, i32, i32, ptr, ptr, i32, i32, i32, i32, i32, i32, i32, i32, i32, i32, ptr, ptr, i32, i32, ptr, ptr, ptr, ptr, i32, i32, i64, i32, i32, i64, ptr, i64, ptr, i32, ptr, i32 }
%struct.AVRational = type { i32, i32 }
%struct.AVChannelLayout = type { i32, i32, %union.anon.2, ptr }
%union.anon.2 = type { i64 }
%struct.AVCodecInternal = type { i32, i32, i32, ptr, ptr, ptr, ptr, ptr, ptr, ptr, i32, ptr, ptr, ptr, i32, i32, ptr, i32, ptr, ptr, i32, i32 }

@.str.38 = private unnamed_addr constant [30 x i8] c"Assertion %s failed at %s:%d\0A\00", align 1
@.str.47 = private unnamed_addr constant [33 x i8] c"Cannot reallocate putbit buffer\0A\00", align 1
@.str.145 = private unnamed_addr constant [22 x i8] c"libavcodec/put_bits.h\00", align 1
@.str.146 = private unnamed_addr constant [35 x i8] c"8*buffer_size >= put_bits_count(s)\00", align 1

; Function Attrs: inlinehint nounwind uwtable
define internal i32 @put_bits_count(ptr noundef %0) #3 {
  %2 = alloca ptr, align 8
  store ptr %0, ptr %2, align 8, !tbaa !64
  %3 = load ptr, ptr %2, align 8, !tbaa !64
  %4 = getelementptr inbounds nuw %struct.PutBitContext, ptr %3, i32 0, i32 3
  %5 = load ptr, ptr %4, align 8, !tbaa !413
  %6 = load ptr, ptr %2, align 8, !tbaa !64
  %7 = getelementptr inbounds nuw %struct.PutBitContext, ptr %6, i32 0, i32 2
  %8 = load ptr, ptr %7, align 8, !tbaa !414
  %9 = ptrtoint ptr %5 to i64
  %10 = ptrtoint ptr %8 to i64
  %11 = sub i64 %9, %10
  %12 = mul nsw i64 %11, 8
  %13 = add nsw i64 %12, 32
  %14 = load ptr, ptr %2, align 8, !tbaa !64
  %15 = getelementptr inbounds nuw %struct.PutBitContext, ptr %14, i32 0, i32 1
  %16 = load i32, ptr %15, align 4, !tbaa !415
  %17 = sext i32 %16 to i64
  %18 = sub nsw i64 %13, %17
  %19 = trunc i64 %18 to i32
  ret i32 %19
}

; Function Attrs: inlinehint nounwind uwtable
define internal void @rebase_put_bits(ptr noundef %0, ptr noundef %1, i32 noundef %2) #3 {
  %4 = alloca ptr, align 8
  %5 = alloca ptr, align 8
  %6 = alloca i32, align 4
  store ptr %0, ptr %4, align 8, !tbaa !64
  store ptr %1, ptr %5, align 8, !tbaa !86
  store i32 %2, ptr %6, align 4, !tbaa !13
  br label %7

7:                                                ; preds = %3
  %8 = load i32, ptr %6, align 4, !tbaa !13
  %9 = mul nsw i32 8, %8
  %10 = load ptr, ptr %4, align 8, !tbaa !64
  %11 = call i32 @put_bits_count(ptr noundef %10)
  %12 = icmp sge i32 %9, %11
  br i1 %12, label %14, label %13

13:                                               ; preds = %7
  call void (ptr, i32, ptr, ...) @av_log(ptr noundef null, i32 noundef 0, ptr noundef @.str.38, ptr noundef @.str.146, ptr noundef @.str.145, i32 noundef 115)
  call void @abort() #17
  unreachable

14:                                               ; preds = %7
  br label %15

15:                                               ; preds = %14
  %16 = load ptr, ptr %5, align 8, !tbaa !86
  %17 = load i32, ptr %6, align 4, !tbaa !13
  %18 = sext i32 %17 to i64
  %19 = getelementptr inbounds i8, ptr %16, i64 %18
  %20 = load ptr, ptr %4, align 8, !tbaa !64
  %21 = getelementptr inbounds nuw %struct.PutBitContext, ptr %20, i32 0, i32 4
  store ptr %19, ptr %21, align 8, !tbaa !417
  %22 = load ptr, ptr %5, align 8, !tbaa !86
  %23 = load ptr, ptr %4, align 8, !tbaa !64
  %24 = getelementptr inbounds nuw %struct.PutBitContext, ptr %23, i32 0, i32 3
  %25 = load ptr, ptr %24, align 8, !tbaa !413
  %26 = load ptr, ptr %4, align 8, !tbaa !64
  %27 = getelementptr inbounds nuw %struct.PutBitContext, ptr %26, i32 0, i32 2
  %28 = load ptr, ptr %27, align 8, !tbaa !414
  %29 = ptrtoint ptr %25 to i64
  %30 = ptrtoint ptr %28 to i64
  %31 = sub i64 %29, %30
  %32 = getelementptr inbounds i8, ptr %22, i64 %31
  %33 = load ptr, ptr %4, align 8, !tbaa !64
  %34 = getelementptr inbounds nuw %struct.PutBitContext, ptr %33, i32 0, i32 3
  store ptr %32, ptr %34, align 8, !tbaa !413
  %35 = load ptr, ptr %5, align 8, !tbaa !86
  %36 = load ptr, ptr %4, align 8, !tbaa !64
  %37 = getelementptr inbounds nuw %struct.PutBitContext, ptr %36, i32 0, i32 2
  store ptr %35, ptr %37, align 8, !tbaa !414
  ret void
}

; Function Attrs: inlinehint nounwind uwtable
define internal i32 @put_bytes_left(ptr noundef %0, i32 noundef %1) #3 {
  %3 = alloca ptr, align 8
  %4 = alloca i32, align 4
  store ptr %0, ptr %3, align 8, !tbaa !64
  store i32 %1, ptr %4, align 4, !tbaa !13
  %5 = load ptr, ptr %3, align 8, !tbaa !64
  %6 = getelementptr inbounds nuw %struct.PutBitContext, ptr %5, i32 0, i32 4
  %7 = load ptr, ptr %6, align 8, !tbaa !417
  %8 = load ptr, ptr %3, align 8, !tbaa !64
  %9 = getelementptr inbounds nuw %struct.PutBitContext, ptr %8, i32 0, i32 3
  %10 = load ptr, ptr %9, align 8, !tbaa !413
  %11 = ptrtoint ptr %7 to i64
  %12 = ptrtoint ptr %10 to i64
  %13 = sub i64 %11, %12
  %14 = load ptr, ptr %3, align 8, !tbaa !64
  %15 = getelementptr inbounds nuw %struct.PutBitContext, ptr %14, i32 0, i32 1
  %16 = load i32, ptr %15, align 4, !tbaa !415
  %17 = sub nsw i32 32, %16
  %18 = load i32, ptr %4, align 4, !tbaa !13
  %19 = icmp ne i32 %18, 0
  %20 = select i1 %19, i32 7, i32 0
  %21 = add nsw i32 %17, %20
  %22 = ashr i32 %21, 3
  %23 = sext i32 %22 to i64
  %24 = sub nsw i64 %13, %23
  %25 = trunc i64 %24 to i32
  ret i32 %25
}

; Function Attrs: nounwind uwtable
define i32 @ff_mpv_reallocate_putbitbuffer(ptr noundef %0, i64 noundef %1, i64 noundef %2) #1 {
  %4 = alloca i32, align 4
  %5 = alloca ptr, align 8
  %6 = alloca i64, align 8
  %7 = alloca i64, align 8
  %8 = alloca i32, align 4
  %9 = alloca ptr, align 8
  %10 = alloca i32, align 4
  %11 = alloca i32, align 4
  store ptr %0, ptr %5, align 8, !tbaa !4
  store i64 %1, ptr %6, align 8, !tbaa !55
  store i64 %2, ptr %7, align 8, !tbaa !55
  %12 = load ptr, ptr %5, align 8, !tbaa !4
  %13 = getelementptr inbounds nuw %struct.MPVEncContext, ptr %12, i32 0, i32 1
  %14 = call i32 @put_bytes_left(ptr noundef %13, i32 noundef 0)
  %15 = sext i32 %14 to i64
  %16 = load i64, ptr %6, align 8, !tbaa !55
  %17 = icmp ult i64 %15, %16
  br i1 %17, label %18, label %144

18:                                               ; preds = %3
  %19 = load ptr, ptr %5, align 8, !tbaa !4
  %20 = getelementptr inbounds nuw %struct.MPVEncContext, ptr %19, i32 0, i32 0
  %21 = getelementptr inbounds nuw %struct.MpegEncContext, ptr %20, i32 0, i32 39
  %22 = load i32, ptr %21, align 8, !tbaa !217
  %23 = icmp eq i32 %22, 1
  br i1 %23, label %24, label %144

24:                                               ; preds = %18
  %25 = load ptr, ptr %5, align 8, !tbaa !4
  %26 = getelementptr inbounds nuw %struct.MPVEncContext, ptr %25, i32 0, i32 1
  %27 = getelementptr inbounds nuw %struct.PutBitContext, ptr %26, i32 0, i32 2
  %28 = load ptr, ptr %27, align 8, !tbaa !316
  %29 = load ptr, ptr %5, align 8, !tbaa !4
  %30 = getelementptr inbounds nuw %struct.MPVEncContext, ptr %29, i32 0, i32 0
  %31 = getelementptr inbounds nuw %struct.MpegEncContext, ptr %30, i32 0, i32 10
  %32 = load ptr, ptr %31, align 8, !tbaa !63
  %33 = getelementptr inbounds nuw %struct.AVCodecContext, ptr %32, i32 0, i32 7
  %34 = load ptr, ptr %33, align 8, !tbaa !302
  %35 = getelementptr inbounds nuw %struct.AVCodecInternal, ptr %34, i32 0, i32 9
  %36 = load ptr, ptr %35, align 8, !tbaa !317
  %37 = icmp eq ptr %28, %36
  br i1 %37, label %38, label %144

38:                                               ; preds = %24
  call void @llvm.lifetime.start.p0(i64 4, ptr %8) #14
  %39 = load ptr, ptr %5, align 8, !tbaa !4
  %40 = getelementptr inbounds nuw %struct.MPVEncContext, ptr %39, i32 0, i32 78
  %41 = load ptr, ptr %40, align 8, !tbaa !419
  %42 = load ptr, ptr %5, align 8, !tbaa !4
  %43 = getelementptr inbounds nuw %struct.MPVEncContext, ptr %42, i32 0, i32 1
  %44 = getelementptr inbounds nuw %struct.PutBitContext, ptr %43, i32 0, i32 2
  %45 = load ptr, ptr %44, align 8, !tbaa !316
  %46 = ptrtoint ptr %41 to i64
  %47 = ptrtoint ptr %45 to i64
  %48 = sub i64 %46, %47
  %49 = trunc i64 %48 to i32
  store i32 %49, ptr %8, align 4, !tbaa !13
  call void @llvm.lifetime.start.p0(i64 8, ptr %9) #14
  store ptr null, ptr %9, align 8, !tbaa !86
  call void @llvm.lifetime.start.p0(i64 4, ptr %10) #14
  store i32 0, ptr %10, align 4, !tbaa !13
  %50 = load ptr, ptr %5, align 8, !tbaa !4
  %51 = getelementptr inbounds nuw %struct.MPVEncContext, ptr %50, i32 0, i32 0
  %52 = getelementptr inbounds nuw %struct.MpegEncContext, ptr %51, i32 0, i32 10
  %53 = load ptr, ptr %52, align 8, !tbaa !63
  %54 = getelementptr inbounds nuw %struct.AVCodecContext, ptr %53, i32 0, i32 7
  %55 = load ptr, ptr %54, align 8, !tbaa !302
  %56 = getelementptr inbounds nuw %struct.AVCodecInternal, ptr %55, i32 0, i32 10
  %57 = load i32, ptr %56, align 8, !tbaa !303
  %58 = zext i32 %57 to i64
  %59 = load i64, ptr %7, align 8, !tbaa !55
  %60 = add i64 %58, %59
  %61 = icmp uge i64 %60, 268435455
  br i1 %61, label %62, label %67

62:                                               ; preds = %38
  %63 = load ptr, ptr %5, align 8, !tbaa !4
  %64 = getelementptr inbounds nuw %struct.MPVEncContext, ptr %63, i32 0, i32 0
  %65 = getelementptr inbounds nuw %struct.MpegEncContext, ptr %64, i32 0, i32 10
  %66 = load ptr, ptr %65, align 8, !tbaa !63
  call void (ptr, i32, ptr, ...) @av_log(ptr noundef %66, i32 noundef 16, ptr noundef @.str.47)
  store i32 -12, ptr %4, align 4
  store i32 1, ptr %11, align 4
  br label %141

67:                                               ; preds = %38
  br label %68

68:                                               ; preds = %67
  br label %69

69:                                               ; preds = %68
  br label %70

70:                                               ; preds = %69
  %71 = load ptr, ptr %5, align 8, !tbaa !4
  %72 = getelementptr inbounds nuw %struct.MPVEncContext, ptr %71, i32 0, i32 0
  %73 = getelementptr inbounds nuw %struct.MpegEncContext, ptr %72, i32 0, i32 10
  %74 = load ptr, ptr %73, align 8, !tbaa !63
  %75 = getelementptr inbounds nuw %struct.AVCodecContext, ptr %74, i32 0, i32 7
  %76 = load ptr, ptr %75, align 8, !tbaa !302
  %77 = getelementptr inbounds nuw %struct.AVCodecInternal, ptr %76, i32 0, i32 10
  %78 = load i32, ptr %77, align 8, !tbaa !303
  %79 = zext i32 %78 to i64
  %80 = load i64, ptr %7, align 8, !tbaa !55
  %81 = add i64 %79, %80
  call void @av_fast_padded_malloc(ptr noundef %9, ptr noundef %10, i64 noundef %81)
  %82 = load ptr, ptr %9, align 8, !tbaa !86
  %83 = icmp ne ptr %82, null
  br i1 %83, label %85, label %84

84:                                               ; preds = %70
  store i32 -12, ptr %4, align 4
  store i32 1, ptr %11, align 4
  br label %141

85:                                               ; preds = %70
  %86 = load ptr, ptr %9, align 8, !tbaa !86
  %87 = load ptr, ptr %5, align 8, !tbaa !4
  %88 = getelementptr inbounds nuw %struct.MPVEncContext, ptr %87, i32 0, i32 0
  %89 = getelementptr inbounds nuw %struct.MpegEncContext, ptr %88, i32 0, i32 10
  %90 = load ptr, ptr %89, align 8, !tbaa !63
  %91 = getelementptr inbounds nuw %struct.AVCodecContext, ptr %90, i32 0, i32 7
  %92 = load ptr, ptr %91, align 8, !tbaa !302
  %93 = getelementptr inbounds nuw %struct.AVCodecInternal, ptr %92, i32 0, i32 9
  %94 = load ptr, ptr %93, align 8, !tbaa !317
  %95 = load ptr, ptr %5, align 8, !tbaa !4
  %96 = getelementptr inbounds nuw %struct.MPVEncContext, ptr %95, i32 0, i32 0
  %97 = getelementptr inbounds nuw %struct.MpegEncContext, ptr %96, i32 0, i32 10
  %98 = load ptr, ptr %97, align 8, !tbaa !63
  %99 = getelementptr inbounds nuw %struct.AVCodecContext, ptr %98, i32 0, i32 7
  %100 = load ptr, ptr %99, align 8, !tbaa !302
  %101 = getelementptr inbounds nuw %struct.AVCodecInternal, ptr %100, i32 0, i32 10
  %102 = load i32, ptr %101, align 8, !tbaa !303
  %103 = zext i32 %102 to i64
  call void @llvm.memcpy.p0.p0.i64(ptr align 1 %86, ptr align 1 %94, i64 %103, i1 false)
  %104 = load ptr, ptr %5, align 8, !tbaa !4
  %105 = getelementptr inbounds nuw %struct.MPVEncContext, ptr %104, i32 0, i32 0
  %106 = getelementptr inbounds nuw %struct.MpegEncContext, ptr %105, i32 0, i32 10
  %107 = load ptr, ptr %106, align 8, !tbaa !63
  %108 = getelementptr inbounds nuw %struct.AVCodecContext, ptr %107, i32 0, i32 7
  %109 = load ptr, ptr %108, align 8, !tbaa !302
  %110 = getelementptr inbounds nuw %struct.AVCodecInternal, ptr %109, i32 0, i32 9
  %111 = load ptr, ptr %110, align 8, !tbaa !317
  call void @av_free(ptr noundef %111)
  %112 = load ptr, ptr %9, align 8, !tbaa !86
  %113 = load ptr, ptr %5, align 8, !tbaa !4
  %114 = getelementptr inbounds nuw %struct.MPVEncContext, ptr %113, i32 0, i32 0
  %115 = getelementptr inbounds nuw %struct.MpegEncContext, ptr %114, i32 0, i32 10
  %116 = load ptr, ptr %115, align 8, !tbaa !63
  %117 = getelementptr inbounds nuw %struct.AVCodecContext, ptr %116, i32 0, i32 7
  %118 = load ptr, ptr %117, align 8, !tbaa !302
  %119 = getelementptr inbounds nuw %struct.AVCodecInternal, ptr %118, i32 0, i32 9
  store ptr %112, ptr %119, align 8, !tbaa !317
  %120 = load i32, ptr %10, align 4, !tbaa !13
  %121 = load ptr, ptr %5, align 8, !tbaa !4
  %122 = getelementptr inbounds nuw %struct.MPVEncContext, ptr %121, i32 0, i32 0
  %123 = getelementptr inbounds nuw %struct.MpegEncContext, ptr %122, i32 0, i32 10
  %124 = load ptr, ptr %123, align 8, !tbaa !63
  %125 = getelementptr inbounds nuw %struct.AVCodecContext, ptr %124, i32 0, i32 7
  %126 = load ptr, ptr %125, align 8, !tbaa !302
  %127 = getelementptr inbounds nuw %struct.AVCodecInternal, ptr %126, i32 0, i32 10
  store i32 %120, ptr %127, align 8, !tbaa !303
  %128 = load ptr, ptr %5, align 8, !tbaa !4
  %129 = getelementptr inbounds nuw %struct.MPVEncContext, ptr %128, i32 0, i32 1
  %130 = load ptr, ptr %9, align 8, !tbaa !86
  %131 = load i32, ptr %10, align 4, !tbaa !13
  call void @rebase_put_bits(ptr noundef %129, ptr noundef %130, i32 noundef %131)
  %132 = load ptr, ptr %5, align 8, !tbaa !4
  %133 = getelementptr inbounds nuw %struct.MPVEncContext, ptr %132, i32 0, i32 1
  %134 = getelementptr inbounds nuw %struct.PutBitContext, ptr %133, i32 0, i32 2
  %135 = load ptr, ptr %134, align 8, !tbaa !316
  %136 = load i32, ptr %8, align 4, !tbaa !13
  %137 = sext i32 %136 to i64
  %138 = getelementptr inbounds i8, ptr %135, i64 %137
  %139 = load ptr, ptr %5, align 8, !tbaa !4
  %140 = getelementptr inbounds nuw %struct.MPVEncContext, ptr %139, i32 0, i32 78
  store ptr %138, ptr %140, align 8, !tbaa !419
  store i32 0, ptr %11, align 4
  br label %141

141:                                              ; preds = %85, %84, %62
  call void @llvm.lifetime.end.p0(i64 4, ptr %10) #14
  call void @llvm.lifetime.end.p0(i64 8, ptr %9) #14
  call void @llvm.lifetime.end.p0(i64 4, ptr %8) #14
  %142 = load i32, ptr %11, align 4
  switch i32 %142, label %155 [
    i32 0, label %143
    i32 1, label %153
  ]

143:                                              ; preds = %141
  br label %144

144:                                              ; preds = %143, %24, %18, %3
  %145 = load ptr, ptr %5, align 8, !tbaa !4
  %146 = getelementptr inbounds nuw %struct.MPVEncContext, ptr %145, i32 0, i32 1
  %147 = call i32 @put_bytes_left(ptr noundef %146, i32 noundef 0)
  %148 = sext i32 %147 to i64
  %149 = load i64, ptr %6, align 8, !tbaa !55
  %150 = icmp ult i64 %148, %149
  br i1 %150, label %151, label %152

151:                                              ; preds = %144
  store i32 -22, ptr %4, align 4
  br label %153

152:                                              ; preds = %144
  store i32 0, ptr %4, align 4
  br label %153

153:                                              ; preds = %152, %151, %141
  %154 = load i32, ptr %4, align 4
  ret i32 %154

155:                                              ; preds = %141
  unreachable
}