; Function Attrs: nounwind uwtable
define range(i32 -22, 1) i32 @ff_mpv_reallocate_putbitbuffer(ptr noundef captures(none) %0, i64 noundef %1, i64 noundef %2) local_unnamed_addr #1 {
  %4 = alloca ptr, align 8
  %5 = alloca i32, align 4
  %6 = getelementptr inbounds nuw i8, ptr %0, i64 4832
  %7 = load ptr, ptr %6, align 8, !tbaa !59
  %8 = getelementptr inbounds nuw i8, ptr %0, i64 4824
  %9 = load ptr, ptr %8, align 8, !tbaa !60
  %10 = ptrtoint ptr %7 to i64
  %11 = ptrtoint ptr %9 to i64
  %12 = getelementptr inbounds nuw i8, ptr %0, i64 4812
  %13 = load i32, ptr %12, align 4, !tbaa !58
  %14 = sub nsw i32 32, %13
  %15 = ashr i32 %14, 3
  %16 = zext i32 %15 to i64
  %17 = add i64 %11, %16
  %18 = sub i64 %10, %17
  %sext30 = shl i64 %18, 32
  %19 = ashr exact i64 %sext30, 32
  %20 = icmp ugt i64 %1, %19
  br i1 %20, label %21, label %86

21:                                               ; preds = %3
  %22 = getelementptr inbounds nuw i8, ptr %0, i64 912
  %23 = load i32, ptr %22, align 8, !tbaa !205
  %24 = icmp eq i32 %23, 1
  br i1 %24, label %25, label %86

25:                                               ; preds = %21
  %26 = getelementptr inbounds nuw i8, ptr %0, i64 4816
  %27 = load ptr, ptr %26, align 8, !tbaa !386
  %28 = getelementptr inbounds nuw i8, ptr %0, i64 472
  %29 = load ptr, ptr %28, align 8, !tbaa !56
  %30 = getelementptr inbounds nuw i8, ptr %29, i64 40
  %31 = load ptr, ptr %30, align 8, !tbaa !328
  %32 = getelementptr inbounds nuw i8, ptr %31, i64 64
  %33 = load ptr, ptr %32, align 8, !tbaa !395
  %34 = icmp eq ptr %27, %33
  br i1 %34, label %35, label %86

35:                                               ; preds = %25
  %36 = getelementptr inbounds nuw i8, ptr %0, i64 6880
  %37 = load ptr, ptr %36, align 8, !tbaa !425
  %38 = ptrtoint ptr %37 to i64
  %39 = ptrtoint ptr %27 to i64
  %40 = sub i64 %38, %39
  call void @llvm.lifetime.start.p0(i64 8, ptr nonnull %4) #16
  store ptr null, ptr %4, align 8, !tbaa !98
  call void @llvm.lifetime.start.p0(i64 4, ptr nonnull %5) #16
  store i32 0, ptr %5, align 4, !tbaa !49
  %41 = getelementptr inbounds nuw i8, ptr %31, i64 72
  %42 = load i32, ptr %41, align 8, !tbaa !329
  %43 = zext i32 %42 to i64
  %44 = add i64 %2, %43
  %45 = icmp ugt i64 %44, 268435454
  br i1 %45, label %46, label %47

46:                                               ; preds = %35
  tail call void (ptr, i32, ptr, ...) @av_log(ptr noundef nonnull %29, i32 noundef 16, ptr noundef nonnull @.str.47) #16
  br label %.thread

47:                                               ; preds = %35
  call void @av_fast_padded_malloc(ptr noundef nonnull %4, ptr noundef nonnull %5, i64 noundef %44) #16
  %48 = load ptr, ptr %4, align 8, !tbaa !98
  %.not = icmp eq ptr %48, null
  br i1 %.not, label %.thread, label %49

49:                                               ; preds = %47
  %50 = load ptr, ptr %28, align 8, !tbaa !56
  %51 = getelementptr inbounds nuw i8, ptr %50, i64 40
  %52 = load ptr, ptr %51, align 8, !tbaa !328
  %53 = getelementptr inbounds nuw i8, ptr %52, i64 64
  %54 = load ptr, ptr %53, align 8, !tbaa !395
  %55 = getelementptr inbounds nuw i8, ptr %52, i64 72
  %56 = load i32, ptr %55, align 8, !tbaa !329
  %57 = zext i32 %56 to i64
  call void @llvm.memcpy.p0.p0.i64(ptr nonnull align 1 %48, ptr align 1 %54, i64 %57, i1 false)
  %58 = load ptr, ptr %28, align 8, !tbaa !56
  %59 = getelementptr inbounds nuw i8, ptr %58, i64 40
  %60 = load ptr, ptr %59, align 8, !tbaa !328
  %61 = getelementptr inbounds nuw i8, ptr %60, i64 64
  %62 = load ptr, ptr %61, align 8, !tbaa !395
  call void @av_free(ptr noundef %62) #16
  %63 = load ptr, ptr %4, align 8, !tbaa !98
  %64 = load ptr, ptr %28, align 8, !tbaa !56
  %65 = getelementptr inbounds nuw i8, ptr %64, i64 40
  %66 = load ptr, ptr %65, align 8, !tbaa !328
  %67 = getelementptr inbounds nuw i8, ptr %66, i64 64
  store ptr %63, ptr %67, align 8, !tbaa !395
  %68 = load i32, ptr %5, align 4, !tbaa !49
  %69 = getelementptr inbounds nuw i8, ptr %66, i64 72
  store i32 %68, ptr %69, align 8, !tbaa !329
  %70 = shl nsw i32 %68, 3
  %71 = load ptr, ptr %8, align 8, !tbaa !60
  %72 = load ptr, ptr %26, align 8, !tbaa !355
  %73 = ptrtoint ptr %71 to i64
  %74 = ptrtoint ptr %72 to i64
  %75 = sub i64 %73, %74
  %76 = load i32, ptr %12, align 4, !tbaa !58
  %.tr.i.i = trunc i64 %75 to i32
  %77 = shl i32 %.tr.i.i, 3
  %reass.sub = sub i32 %77, %76
  %78 = add i32 %reass.sub, 32
  %.not.i = icmp slt i32 %70, %78
  br i1 %.not.i, label %79, label %80

79:                                               ; preds = %49
  call void (ptr, i32, ptr, ...) @av_log(ptr noundef null, i32 noundef 0, ptr noundef nonnull @.str.38, ptr noundef nonnull @.str.146, ptr noundef nonnull @.str.145, i32 noundef 115) #16
  call void @abort() #19
  unreachable

.thread:                                          ; preds = %46, %47
  call void @llvm.lifetime.end.p0(i64 4, ptr nonnull %5) #16
  call void @llvm.lifetime.end.p0(i64 8, ptr nonnull %4) #16
  br label %88

80:                                               ; preds = %49
  %81 = sext i32 %68 to i64
  %82 = getelementptr inbounds i8, ptr %63, i64 %81
  store ptr %82, ptr %6, align 8, !tbaa !59
  %83 = getelementptr inbounds i8, ptr %63, i64 %75
  store ptr %83, ptr %8, align 8, !tbaa !60
  store ptr %63, ptr %26, align 8, !tbaa !355
  %sext = shl i64 %40, 32
  %84 = ashr exact i64 %sext, 32
  %85 = getelementptr inbounds i8, ptr %63, i64 %84
  store ptr %85, ptr %36, align 8, !tbaa !425
  call void @llvm.lifetime.end.p0(i64 4, ptr nonnull %5) #16
  call void @llvm.lifetime.end.p0(i64 8, ptr nonnull %4) #16
  %.pre = ptrtoint ptr %82 to i64
  %.pre38 = ptrtoint ptr %83 to i64
  %.pre40 = sub nsw i32 32, %76
  %.pre42 = ashr i32 %.pre40, 3
  %.pre44 = zext i32 %.pre42 to i64
  %.pre46 = add i64 %.pre38, %.pre44
  %.pre48 = sub i64 %.pre, %.pre46
  %.pre50 = shl i64 %.pre48, 32
  %.pre51 = ashr exact i64 %.pre50, 32
  br label %86

86:                                               ; preds = %80, %25, %21, %3
  %.pre-phi52 = phi i64 [ %.pre51, %80 ], [ %19, %25 ], [ %19, %21 ], [ %19, %3 ]
  %87 = icmp ugt i64 %1, %.pre-phi52
  %. = select i1 %87, i32 -22, i32 0
  br label %88

88:                                               ; preds = %.thread, %86
  %.1 = phi i32 [ %., %86 ], [ -12, %.thread ]
  ret i32 %.1
}